target datalayout = "e-m:e-p270:32:32-p271:32:32-p272:64:64-i64:64-i128:128-f80:128-n8:16:32:64-S128"
target triple = "x86_64-pc-linux-gnu"

%union.pthread_mutex_t = type { %struct.__pthread_mutex_s }
%struct.__pthread_mutex_s = type { i32, i32, i32, i32, i32, i16, i16, %struct.__pthread_internal_list }
%struct.__pthread_internal_list = type { ptr, ptr }
%struct.__sigset_t = type { [16 x i64] }
%struct.client_conn_tag = type { i32, ptr, i32, i32, ptr, ptr, ptr, i64, i8, ptr, i32, i64, ptr, i32 }

@progexit = dso_local global i32 0, align 4
@exit_mutex = dso_local global %union.pthread_mutex_t zeroinitializer, align 8
@.str.195 = private unnamed_addr constant [21 x i8] c"Finished scanthread\0A\00", align 1
@.str.196 = private unnamed_addr constant [42 x i8] c"Scanthread: connection shut down (FD %d)\0A\00", align 1

; Function Attrs: nounwind uwtable
define internal void @scanner_thread(ptr noundef %0) #0 {
  %2 = alloca ptr, align 8
  %3 = alloca ptr, align 8
  %4 = alloca %struct.__sigset_t, align 8
  %5 = alloca i32, align 4
  %6 = alloca i32, align 4
  %7 = alloca i32, align 4
  %8 = alloca i32, align 4
  store ptr %0, ptr %2, align 8
  %9 = load ptr, ptr %2, align 8
  store ptr %9, ptr %3, align 8
  store i32 0, ptr %6, align 4
  store i32 0, ptr %7, align 4
  %10 = call i32 @sigfillset(ptr noundef %4) #9
  %11 = call i32 @sigdelset(ptr noundef %4, i32 noundef 8) #9
  %12 = call i32 @sigdelset(ptr noundef %4, i32 noundef 4) #9
  %13 = call i32 @sigdelset(ptr noundef %4, i32 noundef 11) #9
  %14 = call i32 @sigdelset(ptr noundef %4, i32 noundef 7) #9
  %15 = call i32 @sigdelset(ptr noundef %4, i32 noundef 20) #9
  %16 = call i32 @sigdelset(ptr noundef %4, i32 noundef 18) #9
  %17 = call i32 @pthread_sigmask(i32 noundef 2, ptr noundef %4, ptr noundef null) #9
  %18 = load ptr, ptr %3, align 8
  %19 = call i32 @command(ptr noundef %18, ptr noundef %6)
  store i32 %19, ptr %5, align 4
  %20 = load i32, ptr %5, align 4
  %21 = icmp eq i32 %20, -1
  br i1 %21, label %22, label %25

22:                                               ; preds = %1
  %23 = call i32 @pthread_mutex_lock(ptr noundef @exit_mutex) #9
  store i32 1, ptr @progexit, align 4
  %24 = call i32 @pthread_mutex_unlock(ptr noundef @exit_mutex) #9
  store i32 1, ptr %7, align 4
  br label %27

25:                                               ; preds = %1
  %26 = load i32, ptr %5, align 4
  store i32 %26, ptr %7, align 4
  br label %27

27:                                               ; preds = %25, %22
  call void @thrmgr_setactiveengine(ptr noundef null)
  %28 = load ptr, ptr %3, align 8
  %29 = getelementptr inbounds %struct.client_conn_tag, ptr %28, i32 0, i32 1
  %30 = load ptr, ptr %29, align 8
  %31 = icmp ne ptr %30, null
  br i1 %31, label %32, label %36

32:                                               ; preds = %27
  %33 = load ptr, ptr %3, align 8
  %34 = getelementptr inbounds %struct.client_conn_tag, ptr %33, i32 0, i32 1
  %35 = load ptr, ptr %34, align 8
  call void @free(ptr noundef %35) #9
  br label %36

36:                                               ; preds = %32, %27
  %37 = call i32 (i32, ptr, ...) @logg(i32 noundef 3, ptr noundef @.str.195)
  %38 = load i32, ptr %6, align 4
  %39 = icmp ne i32 %38, 0
  br i1 %39, label %40, label %41

40:                                               ; preds = %36
  store i32 2, ptr %8, align 4
  br label %47

41:                                               ; preds = %36
  %42 = load i32, ptr %7, align 4
  %43 = icmp ne i32 %42, 0
  br i1 %43, label %44, label %45

44:                                               ; preds = %41
  store i32 1, ptr %8, align 4
  br label %46

45:                                               ; preds = %41
  store i32 0, ptr %8, align 4
  br label %46

46:                                               ; preds = %45, %44
  br label %47

47:                                               ; preds = %46, %40
  %48 = load ptr, ptr %3, align 8
  %49 = getelementptr inbounds %struct.client_conn_tag, ptr %48, i32 0, i32 12
  %50 = load ptr, ptr %49, align 8
  %51 = load i32, ptr %8, align 4
  %52 = call i32 @thrmgr_group_finished(ptr noundef %50, i32 noundef %51)
  %53 = icmp ne i32 %52, 0
  br i1 %53, label %54, label %67

54:                                               ; preds = %47
  %55 = load ptr, ptr %3, align 8
  %56 = getelementptr inbounds %struct.client_conn_tag, ptr %55, i32 0, i32 3
  %57 = load i32, ptr %56, align 4
  %58 = call i32 (i32, ptr, ...) @logg(i32 noundef 3, ptr noundef @.str.196, i32 noundef %57)
  %59 = load ptr, ptr %3, align 8
  %60 = getelementptr inbounds %struct.client_conn_tag, ptr %59, i32 0, i32 3
  %61 = load i32, ptr %60, align 4
  %62 = call i32 @shutdown(i32 noundef %61, i32 noundef 2) #9
  %63 = load ptr, ptr %3, align 8
  %64 = getelementptr inbounds %struct.client_conn_tag, ptr %63, i32 0, i32 3
  %65 = load i32, ptr %64, align 4
  %66 = call i32 @close(i32 noundef %65)
  br label %67

67:                                               ; preds = %54, %47
  %68 = load ptr, ptr %3, align 8
  %69 = getelementptr inbounds %struct.client_conn_tag, ptr %68, i32 0, i32 6
  %70 = load ptr, ptr %69, align 8
  %71 = call i32 @cl_engine_free(ptr noundef %70)
  %72 = load ptr, ptr %3, align 8
  call void @free(ptr noundef %72) #9
  ret void
}