; Function Attrs: nounwind uwtable
define internal void @scanner_thread(ptr noundef %0) #0 {
  %2 = alloca %struct.__sigset_t, align 8
  %3 = alloca i32, align 4
  store i32 0, ptr %3, align 4
  %4 = call i32 @sigfillset(ptr noundef nonnull %2) #15
  %5 = call i32 @sigdelset(ptr noundef nonnull %2, i32 noundef 8) #15
  %6 = call i32 @sigdelset(ptr noundef nonnull %2, i32 noundef 4) #15
  %7 = call i32 @sigdelset(ptr noundef nonnull %2, i32 noundef 11) #15
  %8 = call i32 @sigdelset(ptr noundef nonnull %2, i32 noundef 7) #15
  %9 = call i32 @sigdelset(ptr noundef nonnull %2, i32 noundef 20) #15
  %10 = call i32 @sigdelset(ptr noundef nonnull %2, i32 noundef 18) #15
  %11 = call i32 @pthread_sigmask(i32 noundef 2, ptr noundef nonnull %2, ptr noundef null) #15
  %12 = call i32 @command(ptr noundef %0, ptr noundef nonnull %3) #15
  %13 = icmp eq i32 %12, -1
  br i1 %13, label %14, label %17

14:                                               ; preds = %1
  %15 = call i32 @pthread_mutex_lock(ptr noundef nonnull @exit_mutex) #15
  store i32 1, ptr @progexit, align 4
  %16 = call i32 @pthread_mutex_unlock(ptr noundef nonnull @exit_mutex) #15
  br label %20

17:                                               ; preds = %1
  %18 = icmp ne i32 %12, 0
  %19 = zext i1 %18 to i32
  br label %20

20:                                               ; preds = %17, %14
  %.013 = phi i32 [ 1, %14 ], [ %19, %17 ]
  call void @thrmgr_setactiveengine(ptr noundef null) #15
  %21 = getelementptr inbounds i8, ptr %0, i64 8
  %22 = load ptr, ptr %21, align 8
  %.not = icmp eq ptr %22, null
  br i1 %.not, label %24, label %23

23:                                               ; preds = %20
  call void @free(ptr noundef nonnull %22) #15
  br label %24

24:                                               ; preds = %23, %20
  %25 = call i32 (i32, ptr, ...) @logg(i32 noundef 3, ptr noundef nonnull @.str.195) #15
  %26 = load i32, ptr %3, align 4
  %.not16 = icmp eq i32 %26, 0
  %.0 = select i1 %.not16, i32 %.013, i32 2
  %27 = getelementptr inbounds i8, ptr %0, i64 88
  %28 = load ptr, ptr %27, align 8
  %29 = call i32 @thrmgr_group_finished(ptr noundef %28, i32 noundef %.0) #15
  %.not18 = icmp eq i32 %29, 0
  br i1 %.not18, label %38, label %30

30:                                               ; preds = %24
  %31 = getelementptr inbounds i8, ptr %0, i64 20
  %32 = load i32, ptr %31, align 4
  %33 = call i32 (i32, ptr, ...) @logg(i32 noundef 3, ptr noundef nonnull @.str.196, i32 noundef %32) #15
  %34 = load i32, ptr %31, align 4
  %35 = call i32 @shutdown(i32 noundef %34, i32 noundef 2) #15
  %36 = load i32, ptr %31, align 4
  %37 = call i32 @close(i32 noundef %36) #15
  br label %38

38:                                               ; preds = %30, %24
  %39 = getelementptr inbounds i8, ptr %0, i64 40
  %40 = load ptr, ptr %39, align 8
  %41 = call i32 @cl_engine_free(ptr noundef %40) #15
  call void @free(ptr noundef nonnull %0) #15
  ret void
}